target datalayout = "e-m:e-p270:32:32-p271:32:32-p272:64:64-i64:64-i128:128-f80:128-n8:16:32:64-S128"
target triple = "x86_64-pc-linux-gnu"

%struct.PyVarObject = type { %struct._object, i64 }
%struct._object = type { %union.anon, ptr }
%union.anon = type { i64 }
%struct._PyTupleIterObject = type { %struct._object, i64, ptr }

; Function Attrs: inlinehint nounwind uwtable
define internal i64 @Py_SIZE(ptr noundef %0) #2 {
  %2 = alloca ptr, align 8
  store ptr %0, ptr %2, align 8, !tbaa !10
  %3 = load ptr, ptr %2, align 8, !tbaa !10
  %4 = getelementptr inbounds nuw %struct.PyVarObject, ptr %3, i32 0, i32 1
  %5 = load i64, ptr %4, align 8, !tbaa !108
  ret i64 %5
}

; Function Attrs: inlinehint nounwind uwtable
define internal i64 @PyTuple_GET_SIZE(ptr noundef %0) #2 {
  %2 = alloca ptr, align 8
  %3 = alloca ptr, align 8
  store ptr %0, ptr %2, align 8, !tbaa !10
  call void @llvm.lifetime.start.p0(i64 8, ptr %3) #9
  %4 = load ptr, ptr %2, align 8, !tbaa !10
  store ptr %4, ptr %3, align 8, !tbaa !8
  %5 = load ptr, ptr %3, align 8, !tbaa !8
  %6 = call i64 @Py_SIZE(ptr noundef %5)
  call void @llvm.lifetime.end.p0(i64 8, ptr %3) #9
  ret i64 %6
}

; Function Attrs: nounwind uwtable
define internal ptr @tupleiter_len(ptr noundef %0, ptr noundef %1) #0 {
  %3 = alloca ptr, align 8
  %4 = alloca ptr, align 8
  %5 = alloca ptr, align 8
  %6 = alloca i64, align 8
  store ptr %0, ptr %3, align 8, !tbaa !10
  store ptr %1, ptr %4, align 8, !tbaa !10
  call void @llvm.lifetime.start.p0(i64 8, ptr %5) #9
  %7 = load ptr, ptr %3, align 8, !tbaa !10
  store ptr %7, ptr %5, align 8, !tbaa !8
  call void @llvm.lifetime.start.p0(i64 8, ptr %6) #9
  store i64 0, ptr %6, align 8, !tbaa !4
  %8 = load ptr, ptr %5, align 8, !tbaa !8
  %9 = getelementptr inbounds nuw %struct._PyTupleIterObject, ptr %8, i32 0, i32 2
  %10 = load ptr, ptr %9, align 8, !tbaa !134
  %11 = icmp ne ptr %10, null
  br i1 %11, label %12, label %21

12:                                               ; preds = %2
  %13 = load ptr, ptr %5, align 8, !tbaa !8
  %14 = getelementptr inbounds nuw %struct._PyTupleIterObject, ptr %13, i32 0, i32 2
  %15 = load ptr, ptr %14, align 8, !tbaa !134
  %16 = call i64 @PyTuple_GET_SIZE(ptr noundef %15)
  %17 = load ptr, ptr %5, align 8, !tbaa !8
  %18 = getelementptr inbounds nuw %struct._PyTupleIterObject, ptr %17, i32 0, i32 1
  %19 = load i64, ptr %18, align 8, !tbaa !132
  %20 = sub i64 %16, %19
  store i64 %20, ptr %6, align 8, !tbaa !4
  br label %21

21:                                               ; preds = %12, %2
  %22 = load i64, ptr %6, align 8, !tbaa !4
  %23 = call ptr @PyLong_FromSsize_t(i64 noundef %22)
  call void @llvm.lifetime.end.p0(i64 8, ptr %6) #9
  call void @llvm.lifetime.end.p0(i64 8, ptr %5) #9
  ret ptr %23
}