; Function Attrs: nounwind uwtable
define internal ptr @tupleiter_len(ptr noundef readonly captures(none) %0, ptr readnone captures(none) %1) #0 {
  %3 = getelementptr inbounds nuw i8, ptr %0, i64 24
  %4 = load ptr, ptr %3, align 8, !tbaa !127
  %.not = icmp eq ptr %4, null
  br i1 %.not, label %10, label %5

5:                                                ; preds = %2
  %6 = getelementptr i8, ptr %4, i64 16
  %.val = load i64, ptr %6, align 8, !tbaa !107
  %7 = getelementptr inbounds nuw i8, ptr %0, i64 16
  %8 = load i64, ptr %7, align 8, !tbaa !125
  %9 = sub i64 %.val, %8
  br label %10

10:                                               ; preds = %5, %2
  %.0 = phi i64 [ %9, %5 ], [ 0, %2 ]
  %11 = tail call ptr @PyLong_FromSsize_t(i64 noundef %.0) #9
  ret ptr %11
}